target datalayout = "e-m:e-p270:32:32-p271:32:32-p272:64:64-i64:64-i128:128-f80:128-n8:16:32:64-S128"
target triple = "x86_64-pc-linux-gnu"

%"class.std::basic_string_view" = type { i64, ptr }

@.str.12 = private unnamed_addr constant [6 x i8] c".part\00", align 1

; Function Attrs: mustprogress nounwind uwtable
define linkonce_odr noundef i32 @_ZNSt11char_traitsIcE7compareEPKcS2_m(ptr noundef %0, ptr noundef %1, i64 noundef %2) #1 comdat align 2 {
  %4 = alloca i32, align 4
  %5 = alloca ptr, align 8
  %6 = alloca ptr, align 8
  %7 = alloca i64, align 8
  store ptr %0, ptr %5, align 8
  store ptr %1, ptr %6, align 8
  store i64 %2, ptr %7, align 8
  %8 = load i64, ptr %7, align 8
  %9 = icmp eq i64 %8, 0
  br i1 %9, label %10, label %11

10:                                               ; preds = %3
  store i32 0, ptr %4, align 4
  br label %16

11:                                               ; preds = %3
  %12 = load ptr, ptr %5, align 8
  %13 = load ptr, ptr %6, align 8
  %14 = load i64, ptr %7, align 8
  %15 = call i32 @memcmp(ptr noundef %12, ptr noundef %13, i64 noundef %14) #8
  store i32 %15, ptr %4, align 4
  br label %16

16:                                               ; preds = %11, %10
  %17 = load i32, ptr %4, align 4
  ret i32 %17
}

; Function Attrs: mustprogress nounwind uwtable
define linkonce_odr noundef ptr @_ZNSt11char_traitsIcE4findEPKcmRS1_(ptr noundef %0, i64 noundef %1, ptr noundef nonnull align 1 dereferenceable(1) %2) #1 comdat align 2 {
  %4 = alloca ptr, align 8
  %5 = alloca ptr, align 8
  %6 = alloca i64, align 8
  %7 = alloca ptr, align 8
  store ptr %0, ptr %5, align 8
  store i64 %1, ptr %6, align 8
  store ptr %2, ptr %7, align 8
  %8 = load i64, ptr %6, align 8
  %9 = icmp eq i64 %8, 0
  br i1 %9, label %10, label %11

10:                                               ; preds = %3
  store ptr null, ptr %4, align 8
  br label %18

11:                                               ; preds = %3
  %12 = load ptr, ptr %5, align 8
  %13 = load ptr, ptr %7, align 8
  %14 = load i8, ptr %13, align 1
  %15 = sext i8 %14 to i32
  %16 = load i64, ptr %6, align 8
  %17 = call ptr @memchr(ptr noundef %12, i32 noundef %15, i64 noundef %16) #8
  store ptr %17, ptr %4, align 8
  br label %18

18:                                               ; preds = %11, %10
  %19 = load ptr, ptr %4, align 8
  ret ptr %19
}

; Function Attrs: noreturn nounwind uwtable
define linkonce_odr hidden void @__clang_call_terminate(ptr noundef %0) #7 comdat {
  %2 = call ptr @__cxa_begin_catch(ptr %0) #8
  call void @_ZSt9terminatev() #11
  unreachable
}

; Function Attrs: mustprogress nounwind uwtable
define linkonce_odr noundef i64 @_ZNKSt17basic_string_viewIcSt11char_traitsIcEE4findEPKcmm(ptr noundef nonnull align 8 dereferenceable(16) %0, ptr noundef %1, i64 noundef %2, i64 noundef %3) #1 comdat align 2 personality ptr @__gxx_personality_v0 {
  %5 = alloca i64, align 8
  %6 = alloca ptr, align 8
  %7 = alloca ptr, align 8
  %8 = alloca i64, align 8
  %9 = alloca i64, align 8
  %10 = alloca i8, align 1
  %11 = alloca ptr, align 8
  %12 = alloca ptr, align 8
  %13 = alloca i64, align 8
  store ptr %0, ptr %6, align 8
  store ptr %1, ptr %7, align 8
  store i64 %2, ptr %8, align 8
  store i64 %3, ptr %9, align 8
  %14 = load ptr, ptr %6, align 8
  %15 = load i64, ptr %9, align 8
  %16 = icmp eq i64 %15, 0
  br i1 %16, label %17, label %27

17:                                               ; preds = %4
  %18 = load i64, ptr %8, align 8
  %19 = getelementptr inbounds %"class.std::basic_string_view", ptr %14, i32 0, i32 0
  %20 = load i64, ptr %19, align 8
  %21 = icmp ule i64 %18, %20
  br i1 %21, label %22, label %24

22:                                               ; preds = %17
  %23 = load i64, ptr %8, align 8
  br label %25

24:                                               ; preds = %17
  br label %25

25:                                               ; preds = %24, %22
  %26 = phi i64 [ %23, %22 ], [ -1, %24 ]
  store i64 %26, ptr %5, align 8
  br label %87

27:                                               ; preds = %4
  %28 = load i64, ptr %8, align 8
  %29 = getelementptr inbounds %"class.std::basic_string_view", ptr %14, i32 0, i32 0
  %30 = load i64, ptr %29, align 8
  %31 = icmp uge i64 %28, %30
  br i1 %31, label %32, label %33

32:                                               ; preds = %27
  store i64 -1, ptr %5, align 8
  br label %87

33:                                               ; preds = %27
  %34 = load ptr, ptr %7, align 8
  %35 = getelementptr inbounds i8, ptr %34, i64 0
  %36 = load i8, ptr %35, align 1
  store i8 %36, ptr %10, align 1
  %37 = getelementptr inbounds %"class.std::basic_string_view", ptr %14, i32 0, i32 1
  %38 = load ptr, ptr %37, align 8
  %39 = load i64, ptr %8, align 8
  %40 = getelementptr inbounds i8, ptr %38, i64 %39
  store ptr %40, ptr %11, align 8
  %41 = getelementptr inbounds %"class.std::basic_string_view", ptr %14, i32 0, i32 1
  %42 = load ptr, ptr %41, align 8
  %43 = getelementptr inbounds %"class.std::basic_string_view", ptr %14, i32 0, i32 0
  %44 = load i64, ptr %43, align 8
  %45 = getelementptr inbounds i8, ptr %42, i64 %44
  store ptr %45, ptr %12, align 8
  %46 = getelementptr inbounds %"class.std::basic_string_view", ptr %14, i32 0, i32 0
  %47 = load i64, ptr %46, align 8
  %48 = load i64, ptr %8, align 8
  %49 = sub i64 %47, %48
  store i64 %49, ptr %13, align 8
  br label %50

50:                                               ; preds = %79, %33
  %51 = load i64, ptr %13, align 8
  %52 = load i64, ptr %9, align 8
  %53 = icmp uge i64 %51, %52
  br i1 %53, label %54, label %86

54:                                               ; preds = %50
  %55 = load ptr, ptr %11, align 8
  %56 = load i64, ptr %13, align 8
  %57 = load i64, ptr %9, align 8
  %58 = sub i64 %56, %57
  %59 = add i64 %58, 1
  %60 = invoke noundef ptr @_ZNSt11char_traitsIcE4findEPKcmRS1_(ptr noundef %55, i64 noundef %59, ptr noundef nonnull align 1 dereferenceable(1) %10)
          to label %61 unwind label %89

61:                                               ; preds = %54
  store ptr %60, ptr %11, align 8
  %62 = load ptr, ptr %11, align 8
  %63 = icmp ne ptr %62, null
  br i1 %63, label %65, label %64

64:                                               ; preds = %61
  store i64 -1, ptr %5, align 8
  br label %87

65:                                               ; preds = %61
  %66 = load ptr, ptr %11, align 8
  %67 = load ptr, ptr %7, align 8
  %68 = load i64, ptr %9, align 8
  %69 = invoke noundef i32 @_ZNSt11char_traitsIcE7compareEPKcS2_m(ptr noundef %66, ptr noundef %67, i64 noundef %68)
          to label %70 unwind label %89

70:                                               ; preds = %65
  %71 = icmp eq i32 %69, 0
  br i1 %71, label %72, label %79

72:                                               ; preds = %70
  %73 = load ptr, ptr %11, align 8
  %74 = getelementptr inbounds %"class.std::basic_string_view", ptr %14, i32 0, i32 1
  %75 = load ptr, ptr %74, align 8
  %76 = ptrtoint ptr %73 to i64
  %77 = ptrtoint ptr %75 to i64
  %78 = sub i64 %76, %77
  store i64 %78, ptr %5, align 8
  br label %87

79:                                               ; preds = %70
  %80 = load ptr, ptr %12, align 8
  %81 = load ptr, ptr %11, align 8
  %82 = getelementptr inbounds i8, ptr %81, i32 1
  store ptr %82, ptr %11, align 8
  %83 = ptrtoint ptr %80 to i64
  %84 = ptrtoint ptr %82 to i64
  %85 = sub i64 %83, %84
  store i64 %85, ptr %13, align 8
  br label %50, !llvm.loop !11

86:                                               ; preds = %50
  store i64 -1, ptr %5, align 8
  br label %87

87:                                               ; preds = %86, %72, %64, %32, %25
  %88 = load i64, ptr %5, align 8
  ret i64 %88

89:                                               ; preds = %65, %54
  %90 = landingpad { ptr, i32 }
          catch ptr null
  %91 = extractvalue { ptr, i32 } %90, 0
  call void @__clang_call_terminate(ptr %91) #11
  unreachable
}

; Function Attrs: mustprogress nounwind uwtable
define linkonce_odr noundef i64 @_ZNSt11char_traitsIcE6lengthEPKc(ptr noundef %0) #1 comdat align 2 {
  %2 = alloca ptr, align 8
  store ptr %0, ptr %2, align 8
  %3 = load ptr, ptr %2, align 8
  %4 = call i64 @strlen(ptr noundef %3) #8
  ret i64 %4
}

; Function Attrs: mustprogress nounwind uwtable
define linkonce_odr noundef nonnull align 1 dereferenceable(1) ptr @_ZNKSt17basic_string_viewIcSt11char_traitsIcEEixEm(ptr noundef nonnull align 8 dereferenceable(16) %0, i64 noundef %1) #1 comdat align 2 {
  %3 = alloca ptr, align 8
  %4 = alloca i64, align 8
  store ptr %0, ptr %3, align 8
  store i64 %1, ptr %4, align 8
  %5 = load ptr, ptr %3, align 8
  br label %6

6:                                                ; preds = %2
  br label %7

7:                                                ; preds = %6
  br label %8

8:                                                ; preds = %7
  %9 = getelementptr inbounds %"class.std::basic_string_view", ptr %5, i32 0, i32 1
  %10 = load ptr, ptr %9, align 8
  %11 = load i64, ptr %4, align 8
  %12 = getelementptr inbounds i8, ptr %10, i64 %11
  ret ptr %12
}

; Function Attrs: mustprogress nounwind uwtable
define linkonce_odr noundef i64 @_ZNKSt17basic_string_viewIcSt11char_traitsIcEE6lengthEv(ptr noundef nonnull align 8 dereferenceable(16) %0) #1 comdat align 2 {
  %2 = alloca ptr, align 8
  store ptr %0, ptr %2, align 8
  %3 = load ptr, ptr %2, align 8
  %4 = getelementptr inbounds %"class.std::basic_string_view", ptr %3, i32 0, i32 0
  %5 = load i64, ptr %4, align 8
  ret i64 %5
}

; Function Attrs: mustprogress nounwind uwtable
define linkonce_odr noundef i64 @_ZNKSt17basic_string_viewIcSt11char_traitsIcEE4findEPKcm(ptr noundef nonnull align 8 dereferenceable(16) %0, ptr noundef nonnull %1, i64 noundef %2) #1 comdat align 2 personality ptr @__gxx_personality_v0 {
  %4 = alloca ptr, align 8
  %5 = alloca ptr, align 8
  %6 = alloca i64, align 8
  store ptr %0, ptr %4, align 8
  store ptr %1, ptr %5, align 8
  store i64 %2, ptr %6, align 8
  %7 = load ptr, ptr %4, align 8
  %8 = load ptr, ptr %5, align 8
  %9 = load i64, ptr %6, align 8
  %10 = load ptr, ptr %5, align 8
  %11 = invoke noundef i64 @_ZNSt11char_traitsIcE6lengthEPKc(ptr noundef %10)
          to label %12 unwind label %14

12:                                               ; preds = %3
  %13 = call noundef i64 @_ZNKSt17basic_string_viewIcSt11char_traitsIcEE4findEPKcmm(ptr noundef nonnull align 8 dereferenceable(16) %7, ptr noundef %8, i64 noundef %9, i64 noundef %11) #8
  ret i64 %13

14:                                               ; preds = %3
  %15 = landingpad { ptr, i32 }
          catch ptr null
  %16 = extractvalue { ptr, i32 } %15, 0
  call void @__clang_call_terminate(ptr %16) #11
  unreachable
}

; Function Attrs: mustprogress nounwind uwtable
define internal noundef i64 @_ZN12_GLOBAL__N_130findSuffixFromNoAppendPositionESt17basic_string_viewIcSt11char_traitsIcEE(i64 %0, ptr %1) #1 {
  %3 = alloca i64, align 8
  %4 = alloca %"class.std::basic_string_view", align 8
  %5 = alloca i64, align 8
  %6 = getelementptr inbounds { i64, ptr }, ptr %4, i32 0, i32 0
  store i64 %0, ptr %6, align 8
  %7 = getelementptr inbounds { i64, ptr }, ptr %4, i32 0, i32 1
  store ptr %1, ptr %7, align 8
  %8 = call noundef i64 @_ZNKSt17basic_string_viewIcSt11char_traitsIcEE4findEPKcm(ptr noundef nonnull align 8 dereferenceable(16) %4, ptr noundef @.str.12, i64 noundef 0) #8
  store i64 %8, ptr %5, align 8
  %9 = load i64, ptr %5, align 8
  %10 = icmp ne i64 %9, -1
  br i1 %10, label %11, label %57

11:                                               ; preds = %2
  %12 = call noundef i64 @_ZNKSt17basic_string_viewIcSt11char_traitsIcEE6lengthEv(ptr noundef nonnull align 8 dereferenceable(16) %4) #8
  %13 = load i64, ptr %5, align 8
  %14 = sub i64 %12, %13
  %15 = icmp uge i64 %14, 10
  br i1 %15, label %16, label %57

16:                                               ; preds = %11
  %17 = load i64, ptr %5, align 8
  %18 = add i64 %17, 5
  %19 = call noundef nonnull align 1 dereferenceable(1) ptr @_ZNKSt17basic_string_viewIcSt11char_traitsIcEEixEm(ptr noundef nonnull align 8 dereferenceable(16) %4, i64 noundef %18) #8
  %20 = load i8, ptr %19, align 1
  %21 = sext i8 %20 to i32
  %22 = call i32 @isdigit(i32 noundef %21) #9
  %23 = icmp ne i32 %22, 0
  br i1 %23, label %24, label %57

24:                                               ; preds = %16
  %25 = load i64, ptr %5, align 8
  %26 = add i64 %25, 6
  %27 = call noundef nonnull align 1 dereferenceable(1) ptr @_ZNKSt17basic_string_viewIcSt11char_traitsIcEEixEm(ptr noundef nonnull align 8 dereferenceable(16) %4, i64 noundef %26) #8
  %28 = load i8, ptr %27, align 1
  %29 = sext i8 %28 to i32
  %30 = call i32 @isdigit(i32 noundef %29) #9
  %31 = icmp ne i32 %30, 0
  br i1 %31, label %32, label %57

32:                                               ; preds = %24
  %33 = load i64, ptr %5, align 8
  %34 = add i64 %33, 7
  %35 = call noundef nonnull align 1 dereferenceable(1) ptr @_ZNKSt17basic_string_viewIcSt11char_traitsIcEEixEm(ptr noundef nonnull align 8 dereferenceable(16) %4, i64 noundef %34) #8
  %36 = load i8, ptr %35, align 1
  %37 = sext i8 %36 to i32
  %38 = call i32 @isdigit(i32 noundef %37) #9
  %39 = icmp ne i32 %38, 0
  br i1 %39, label %40, label %57

40:                                               ; preds = %32
  %41 = load i64, ptr %5, align 8
  %42 = add i64 %41, 8
  %43 = call noundef nonnull align 1 dereferenceable(1) ptr @_ZNKSt17basic_string_viewIcSt11char_traitsIcEEixEm(ptr noundef nonnull align 8 dereferenceable(16) %4, i64 noundef %42) #8
  %44 = load i8, ptr %43, align 1
  %45 = sext i8 %44 to i32
  %46 = call i32 @isdigit(i32 noundef %45) #9
  %47 = icmp ne i32 %46, 0
  br i1 %47, label %48, label %57

48:                                               ; preds = %40
  %49 = load i64, ptr %5, align 8
  %50 = add i64 %49, 9
  %51 = call noundef nonnull align 1 dereferenceable(1) ptr @_ZNKSt17basic_string_viewIcSt11char_traitsIcEEixEm(ptr noundef nonnull align 8 dereferenceable(16) %4, i64 noundef %50) #8
  %52 = load i8, ptr %51, align 1
  %53 = sext i8 %52 to i32
  %54 = icmp eq i32 %53, 46
  br i1 %54, label %55, label %57

55:                                               ; preds = %48
  %56 = load i64, ptr %5, align 8
  store i64 %56, ptr %3, align 8
  br label %58

57:                                               ; preds = %48, %40, %32, %24, %16, %11, %2
  store i64 -1, ptr %3, align 8
  br label %58

58:                                               ; preds = %57, %55
  %59 = load i64, ptr %3, align 8
  ret i64 %59
}

; Function Attrs: mustprogress uwtable
define noundef zeroext i1 @_Z21hasSuffixFromNoAppendSt17basic_string_viewIcSt11char_traitsIcEE(i64 %0, ptr %1) #0 {
  %3 = alloca %"class.std::basic_string_view", align 8
  %4 = alloca %"class.std::basic_string_view", align 8
  %5 = getelementptr inbounds { i64, ptr }, ptr %3, i32 0, i32 0
  store i64 %0, ptr %5, align 8
  %6 = getelementptr inbounds { i64, ptr }, ptr %3, i32 0, i32 1
  store ptr %1, ptr %6, align 8
  call void @llvm.memcpy.p0.p0.i64(ptr align 8 %4, ptr align 8 %3, i64 16, i1 false)
  %7 = getelementptr inbounds { i64, ptr }, ptr %4, i32 0, i32 0
  %8 = load i64, ptr %7, align 8
  %9 = getelementptr inbounds { i64, ptr }, ptr %4, i32 0, i32 1
  %10 = load ptr, ptr %9, align 8
  %11 = call noundef i64 @_ZN12_GLOBAL__N_130findSuffixFromNoAppendPositionESt17basic_string_viewIcSt11char_traitsIcEE(i64 %8, ptr %10)
  %12 = icmp ne i64 %11, -1
  ret i1 %12
}