; Function Attrs: mustprogress nofree nounwind willreturn memory(read, inaccessiblemem: none) uwtable
define noundef zeroext i1 @_Z21hasSuffixFromNoAppendSt17basic_string_viewIcSt11char_traitsIcEE(i64 %0, ptr %1) local_unnamed_addr #6 personality ptr @__gxx_personality_v0 {
  %.not2531.i.i.i = icmp ult i64 %0, 5
  br i1 %.not2531.i.i.i, label %_ZNKSt17basic_string_viewIcSt11char_traitsIcEE4findEPKcm.exit.thread.i, label %.lr.ph.i.i.i

.lr.ph.i.i.i:                                     ; preds = %2
  %3 = getelementptr inbounds i8, ptr %1, i64 %0
  %4 = ptrtoint ptr %3 to i64
  br label %_ZNSt11char_traitsIcE4findEPKcmRS1_.exit.i.i.i

_ZNSt11char_traitsIcE4findEPKcmRS1_.exit.i.i.i:   ; preds = %8, %.lr.ph.i.i.i
  %.033.i.i.i = phi i64 [ %0, %.lr.ph.i.i.i ], [ %11, %8 ]
  %.02132.i.i.i = phi ptr [ %1, %.lr.ph.i.i.i ], [ %9, %8 ]
  %5 = add i64 %.033.i.i.i, -4
  %6 = tail call ptr @memchr(ptr noundef %.02132.i.i.i, i32 noundef 46, i64 noundef %5) #13
  %.not26.i.i.i = icmp eq ptr %6, null
  br i1 %.not26.i.i.i, label %_ZNKSt17basic_string_viewIcSt11char_traitsIcEE4findEPKcm.exit.thread.i, label %_ZNSt11char_traitsIcE7compareEPKcS2_m.exit.i.i.i

_ZNSt11char_traitsIcE7compareEPKcS2_m.exit.i.i.i: ; preds = %_ZNSt11char_traitsIcE4findEPKcmRS1_.exit.i.i.i
  %bcmp.i.i.i = tail call i32 @bcmp(ptr noundef nonnull dereferenceable(5) %6, ptr noundef nonnull dereferenceable(5) @.str.12, i64 5)
  %7 = icmp eq i32 %bcmp.i.i.i, 0
  br i1 %7, label %_ZNKSt17basic_string_viewIcSt11char_traitsIcEE4findEPKcm.exit.i, label %8

8:                                                ; preds = %_ZNSt11char_traitsIcE7compareEPKcS2_m.exit.i.i.i
  %9 = getelementptr inbounds i8, ptr %6, i64 1
  %10 = ptrtoint ptr %9 to i64
  %11 = sub i64 %4, %10
  %.not25.i.i.i = icmp ult i64 %11, 5
  br i1 %.not25.i.i.i, label %_ZNKSt17basic_string_viewIcSt11char_traitsIcEE4findEPKcm.exit.thread.i, label %_ZNSt11char_traitsIcE4findEPKcmRS1_.exit.i.i.i, !llvm.loop !11

_ZNKSt17basic_string_viewIcSt11char_traitsIcEE4findEPKcm.exit.i: ; preds = %_ZNSt11char_traitsIcE7compareEPKcS2_m.exit.i.i.i
  %12 = ptrtoint ptr %6 to i64
  %13 = ptrtoint ptr %1 to i64
  %14 = sub i64 %12, %13
  %.not.i = icmp ne i64 %14, -1
  %15 = sub i64 %0, %14
  %16 = icmp ugt i64 %15, 9
  %or.cond.i = and i1 %.not.i, %16
  br i1 %or.cond.i, label %17, label %_ZNKSt17basic_string_viewIcSt11char_traitsIcEE4findEPKcm.exit.thread.i

17:                                               ; preds = %_ZNKSt17basic_string_viewIcSt11char_traitsIcEE4findEPKcm.exit.i
  %18 = getelementptr i8, ptr %1, i64 %14
  %19 = getelementptr i8, ptr %18, i64 5
  %20 = load i8, ptr %19, align 1
  %21 = sext i8 %20 to i32
  %isdigittmp.i = add nsw i32 %21, -48
  %isdigit.i = icmp ult i32 %isdigittmp.i, 10
  br i1 %isdigit.i, label %22, label %_ZNKSt17basic_string_viewIcSt11char_traitsIcEE4findEPKcm.exit.thread.i

22:                                               ; preds = %17
  %23 = getelementptr i8, ptr %18, i64 6
  %24 = load i8, ptr %23, align 1
  %25 = sext i8 %24 to i32
  %isdigittmp10.i = add nsw i32 %25, -48
  %isdigit11.i = icmp ult i32 %isdigittmp10.i, 10
  br i1 %isdigit11.i, label %26, label %_ZNKSt17basic_string_viewIcSt11char_traitsIcEE4findEPKcm.exit.thread.i

26:                                               ; preds = %22
  %27 = getelementptr i8, ptr %18, i64 7
  %28 = load i8, ptr %27, align 1
  %29 = sext i8 %28 to i32
  %isdigittmp12.i = add nsw i32 %29, -48
  %isdigit13.i = icmp ult i32 %isdigittmp12.i, 10
  br i1 %isdigit13.i, label %30, label %_ZNKSt17basic_string_viewIcSt11char_traitsIcEE4findEPKcm.exit.thread.i

30:                                               ; preds = %26
  %31 = getelementptr i8, ptr %18, i64 8
  %32 = load i8, ptr %31, align 1
  %33 = sext i8 %32 to i32
  %isdigittmp14.i = add nsw i32 %33, -48
  %isdigit15.i = icmp ult i32 %isdigittmp14.i, 10
  br i1 %isdigit15.i, label %34, label %_ZNKSt17basic_string_viewIcSt11char_traitsIcEE4findEPKcm.exit.thread.i

34:                                               ; preds = %30
  %35 = getelementptr i8, ptr %18, i64 9
  %36 = load i8, ptr %35, align 1
  %37 = icmp eq i8 %36, 46
  br i1 %37, label %_ZN12_GLOBAL__N_130findSuffixFromNoAppendPositionESt17basic_string_viewIcSt11char_traitsIcEE.exit, label %_ZNKSt17basic_string_viewIcSt11char_traitsIcEE4findEPKcm.exit.thread.i

_ZNKSt17basic_string_viewIcSt11char_traitsIcEE4findEPKcm.exit.thread.i: ; preds = %8, %_ZNSt11char_traitsIcE4findEPKcmRS1_.exit.i.i.i, %34, %30, %26, %22, %17, %_ZNKSt17basic_string_viewIcSt11char_traitsIcEE4findEPKcm.exit.i, %2
  br label %_ZN12_GLOBAL__N_130findSuffixFromNoAppendPositionESt17basic_string_viewIcSt11char_traitsIcEE.exit

_ZN12_GLOBAL__N_130findSuffixFromNoAppendPositionESt17basic_string_viewIcSt11char_traitsIcEE.exit: ; preds = %34, %_ZNKSt17basic_string_viewIcSt11char_traitsIcEE4findEPKcm.exit.thread.i
  %.0.i = phi i64 [ -1, %_ZNKSt17basic_string_viewIcSt11char_traitsIcEE4findEPKcm.exit.thread.i ], [ %14, %34 ]
  %38 = icmp ne i64 %.0.i, -1
  ret i1 %38
}